target datalayout = "e-m:e-p270:32:32-p271:32:32-p272:64:64-i64:64-i128:128-f80:128-n8:16:32:64-S128"
target triple = "x86_64-unknown-linux-gnu"

%"class.icu_75::CollationElementIterator" = type { %"class.icu_75::UObject", ptr, ptr, i32, i8, ptr, %"class.icu_75::UnicodeString" }
%"class.icu_75::UObject" = type { ptr }
%"class.icu_75::UnicodeString" = type { %"class.icu_75::Replaceable", %"union.icu_75::UnicodeString::StackBufferOrFields" }
%"class.icu_75::Replaceable" = type { %"class.icu_75::UObject" }
%"union.icu_75::UnicodeString::StackBufferOrFields" = type { %struct.anon.0, [32 x i8] }
%struct.anon.0 = type { i16, i32, i32, ptr }
%"class.icu_75::UVector32" = type { %"class.icu_75::UObject", i32, i32, i32, ptr }
%"class.icu_75::CollationIterator" = type <{ %"class.icu_75::UObject", ptr, ptr, %"class.icu_75::CollationIterator::CEBuffer", i32, [4 x i8], ptr, i32, i8, [3 x i8] }>
%"class.icu_75::CollationIterator::CEBuffer" = type { i32, %"class.icu_75::MaybeStackArray" }
%"class.icu_75::MaybeStackArray" = type { ptr, i32, i8, [40 x i64] }

; Function Attrs: mustprogress nounwind uwtable
define linkonce_odr noundef i32 @_ZNK6icu_759UVector3210elementAtiEi(ptr noundef nonnull align 8 dereferenceable(32) %this, i32 noundef %index) #0 comdat align 2 {
entry:
  %this.addr = alloca ptr, align 8
  %index.addr = alloca i32, align 4
  store ptr %this, ptr %this.addr, align 8
  store i32 %index, ptr %index.addr, align 4
  %this1 = load ptr, ptr %this.addr, align 8
  %0 = load i32, ptr %index.addr, align 4
  %cmp = icmp sge i32 %0, 0
  br i1 %cmp, label %land.lhs.true, label %cond.false

land.lhs.true:                                    ; preds = %entry
  %count = getelementptr inbounds %"class.icu_75::UVector32", ptr %this1, i32 0, i32 1
  %1 = load i32, ptr %count, align 8
  %cmp2 = icmp sgt i32 %1, 0
  br i1 %cmp2, label %land.lhs.true3, label %cond.false

land.lhs.true3:                                   ; preds = %land.lhs.true
  %count4 = getelementptr inbounds %"class.icu_75::UVector32", ptr %this1, i32 0, i32 1
  %2 = load i32, ptr %count4, align 8
  %3 = load i32, ptr %index.addr, align 4
  %sub = sub nsw i32 %2, %3
  %cmp5 = icmp sgt i32 %sub, 0
  br i1 %cmp5, label %cond.true, label %cond.false

cond.true:                                        ; preds = %land.lhs.true3
  %elements = getelementptr inbounds %"class.icu_75::UVector32", ptr %this1, i32 0, i32 4
  %4 = load ptr, ptr %elements, align 8
  %5 = load i32, ptr %index.addr, align 4
  %idxprom = sext i32 %5 to i64
  %arrayidx = getelementptr inbounds i32, ptr %4, i64 %idxprom
  %6 = load i32, ptr %arrayidx, align 4
  br label %cond.end

cond.false:                                       ; preds = %land.lhs.true3, %land.lhs.true, %entry
  br label %cond.end

cond.end:                                         ; preds = %cond.false, %cond.true
  %cond = phi i32 [ %6, %cond.true ], [ 0, %cond.false ]
  ret i32 %cond
}

; Function Attrs: mustprogress nounwind uwtable
define linkonce_odr noundef i32 @_ZNK6icu_7517CollationIterator12getCEsLengthEv(ptr noundef nonnull align 8 dereferenceable(389) %this) #0 comdat align 2 {
entry:
  %this.addr = alloca ptr, align 8
  store ptr %this, ptr %this.addr, align 8
  %this1 = load ptr, ptr %this.addr, align 8
  %ceBuffer = getelementptr inbounds %"class.icu_75::CollationIterator", ptr %this1, i32 0, i32 3
  %length = getelementptr inbounds %"class.icu_75::CollationIterator::CEBuffer", ptr %ceBuffer, i32 0, i32 0
  %0 = load i32, ptr %length, align 8
  ret i32 %0
}

; Function Attrs: mustprogress nounwind uwtable
define linkonce_odr noundef signext i8 @_ZNK6icu_759UVector327isEmptyEv(ptr noundef nonnull align 8 dereferenceable(32) %this) #0 comdat align 2 {
entry:
  %this.addr = alloca ptr, align 8
  store ptr %this, ptr %this.addr, align 8
  %this1 = load ptr, ptr %this.addr, align 8
  %count = getelementptr inbounds %"class.icu_75::UVector32", ptr %this1, i32 0, i32 1
  %0 = load i32, ptr %count, align 8
  %cmp = icmp eq i32 %0, 0
  %conv = zext i1 %cmp to i8
  ret i8 %conv
}

; Function Attrs: mustprogress uwtable
define noundef i32 @_ZNK6icu_7524CollationElementIterator9getOffsetEv(ptr noundef nonnull align 8 dereferenceable(104) %this) #1 align 2 {
entry:
  %retval = alloca i32, align 4
  %this.addr = alloca ptr, align 8
  %i = alloca i32, align 4
  store ptr %this, ptr %this.addr, align 8
  %this1 = load ptr, ptr %this.addr, align 8
  %dir_ = getelementptr inbounds %"class.icu_75::CollationElementIterator", ptr %this1, i32 0, i32 4
  %0 = load i8, ptr %dir_, align 4
  %conv = sext i8 %0 to i32
  %cmp = icmp slt i32 %conv, 0
  br i1 %cmp, label %land.lhs.true, label %if.end10

land.lhs.true:                                    ; preds = %entry
  %offsets_ = getelementptr inbounds %"class.icu_75::CollationElementIterator", ptr %this1, i32 0, i32 5
  %1 = load ptr, ptr %offsets_, align 8
  %cmp2 = icmp ne ptr %1, null
  br i1 %cmp2, label %land.lhs.true3, label %if.end10

land.lhs.true3:                                   ; preds = %land.lhs.true
  %offsets_4 = getelementptr inbounds %"class.icu_75::CollationElementIterator", ptr %this1, i32 0, i32 5
  %2 = load ptr, ptr %offsets_4, align 8
  %call = call noundef signext i8 @_ZNK6icu_759UVector327isEmptyEv(ptr noundef nonnull align 8 dereferenceable(32) %2)
  %tobool = icmp ne i8 %call, 0
  br i1 %tobool, label %if.end10, label %if.then

if.then:                                          ; preds = %land.lhs.true3
  %iter_ = getelementptr inbounds %"class.icu_75::CollationElementIterator", ptr %this1, i32 0, i32 1
  %3 = load ptr, ptr %iter_, align 8
  %call5 = call noundef i32 @_ZNK6icu_7517CollationIterator12getCEsLengthEv(ptr noundef nonnull align 8 dereferenceable(389) %3)
  store i32 %call5, ptr %i, align 4
  %otherHalf_ = getelementptr inbounds %"class.icu_75::CollationElementIterator", ptr %this1, i32 0, i32 3
  %4 = load i32, ptr %otherHalf_, align 8
  %cmp6 = icmp ne i32 %4, 0
  br i1 %cmp6, label %if.then7, label %if.end

if.then7:                                         ; preds = %if.then
  %5 = load i32, ptr %i, align 4
  %inc = add nsw i32 %5, 1
  store i32 %inc, ptr %i, align 4
  br label %if.end

if.end:                                           ; preds = %if.then7, %if.then
  %offsets_8 = getelementptr inbounds %"class.icu_75::CollationElementIterator", ptr %this1, i32 0, i32 5
  %6 = load ptr, ptr %offsets_8, align 8
  %7 = load i32, ptr %i, align 4
  %call9 = call noundef i32 @_ZNK6icu_759UVector3210elementAtiEi(ptr noundef nonnull align 8 dereferenceable(32) %6, i32 noundef %7)
  store i32 %call9, ptr %retval, align 4
  br label %return

if.end10:                                         ; preds = %land.lhs.true3, %land.lhs.true, %entry
  %iter_11 = getelementptr inbounds %"class.icu_75::CollationElementIterator", ptr %this1, i32 0, i32 1
  %8 = load ptr, ptr %iter_11, align 8
  %vtable = load ptr, ptr %8, align 8
  %vfn = getelementptr inbounds ptr, ptr %vtable, i64 5
  %9 = load ptr, ptr %vfn, align 8
  %call12 = call noundef i32 %9(ptr noundef nonnull align 8 dereferenceable(389) %8)
  store i32 %call12, ptr %retval, align 4
  br label %return

return:                                           ; preds = %if.end10, %if.end
  %10 = load i32, ptr %retval, align 4
  ret i32 %10
}