; Function Attrs: mustprogress uwtable
define noundef i32 @_ZNK6icu_7524CollationElementIterator9getOffsetEv(ptr nocapture noundef nonnull readonly align 8 dereferenceable(104) %this) local_unnamed_addr #1 align 2 {
entry:
  %dir_ = getelementptr inbounds i8, ptr %this, i64 28
  %0 = load i8, ptr %dir_, align 4
  %cmp = icmp slt i8 %0, 0
  br i1 %cmp, label %land.lhs.true, label %if.end10

land.lhs.true:                                    ; preds = %entry
  %offsets_ = getelementptr inbounds i8, ptr %this, i64 32
  %1 = load ptr, ptr %offsets_, align 8
  %cmp2.not = icmp eq ptr %1, null
  br i1 %cmp2.not, label %if.end10, label %land.lhs.true3

land.lhs.true3:                                   ; preds = %land.lhs.true
  %count.i = getelementptr inbounds i8, ptr %1, i64 8
  %2 = load i32, ptr %count.i, align 8
  %cmp.i.not = icmp eq i32 %2, 0
  br i1 %cmp.i.not, label %if.end10, label %if.then

if.then:                                          ; preds = %land.lhs.true3
  %iter_ = getelementptr inbounds i8, ptr %this, i64 8
  %3 = load ptr, ptr %iter_, align 8
  %ceBuffer.i = getelementptr inbounds i8, ptr %3, i64 24
  %4 = load i32, ptr %ceBuffer.i, align 8
  %otherHalf_ = getelementptr inbounds i8, ptr %this, i64 24
  %5 = load i32, ptr %otherHalf_, align 8
  %cmp6.not = icmp ne i32 %5, 0
  %inc = zext i1 %cmp6.not to i32
  %spec.select = add nsw i32 %4, %inc
  %cmp.i2 = icmp sgt i32 %spec.select, -1
  %cmp5.i = icmp sgt i32 %2, %spec.select
  %or.cond.i = and i1 %cmp.i2, %cmp5.i
  br i1 %or.cond.i, label %cond.true.i, label %return

cond.true.i:                                      ; preds = %if.then
  %elements.i = getelementptr inbounds i8, ptr %1, i64 24
  %6 = load ptr, ptr %elements.i, align 8
  %idxprom.i = zext nneg i32 %spec.select to i64
  %arrayidx.i = getelementptr inbounds i32, ptr %6, i64 %idxprom.i
  %7 = load i32, ptr %arrayidx.i, align 4
  br label %return

if.end10:                                         ; preds = %land.lhs.true3, %land.lhs.true, %entry
  %iter_11 = getelementptr inbounds i8, ptr %this, i64 8
  %8 = load ptr, ptr %iter_11, align 8
  %vtable = load ptr, ptr %8, align 8
  %vfn = getelementptr inbounds i8, ptr %vtable, i64 40
  %9 = load ptr, ptr %vfn, align 8
  %call12 = tail call noundef i32 %9(ptr noundef nonnull align 8 dereferenceable(389) %8)
  br label %return

return:                                           ; preds = %cond.true.i, %if.then, %if.end10
  %retval.0 = phi i32 [ %call12, %if.end10 ], [ %7, %cond.true.i ], [ 0, %if.then ]
  ret i32 %retval.0
}